; Function Attrs: null_pointer_is_valid sspstrong uwtable
define ptr @oid_encoded2string(ptr noundef %0, ptr noundef readonly captures(none) %1, i32 noundef %2) local_unnamed_addr #0 {
  %4 = icmp sgt i32 %2, 0
  br i1 %4, label %.lr.ph.preheader.i.i, label %._crit_edge.i.i.thread

._crit_edge.i.i.thread:                           ; preds = %3
  %5 = tail call noalias dereferenceable_or_null(4) ptr @wmem_alloc(ptr noundef null, i64 noundef 4) #8
  br label %oid_encoded2subid.exit.thread17

.lr.ph.preheader.i.i:                             ; preds = %3
  %wide.trip.count.i.i = zext nneg i32 %2 to i64
  br label %.lr.ph.i.i

.lr.ph.i.i:                                       ; preds = %.lr.ph.i.i, %.lr.ph.preheader.i.i
  %indvars.iv.i.i = phi i64 [ 0, %.lr.ph.preheader.i.i ], [ %indvars.iv.next.i.i, %.lr.ph.i.i ]
  %.06484.i.i = phi i32 [ 1, %.lr.ph.preheader.i.i ], [ %spec.select.i.i, %.lr.ph.i.i ]
  %6 = getelementptr i8, ptr %1, i64 %indvars.iv.i.i
  %7 = load i8, ptr %6, align 1
  %.not7282.i.i = icmp sgt i8 %7, -1
  %8 = zext i1 %.not7282.i.i to i32
  %spec.select.i.i = add i32 %.06484.i.i, %8
  %indvars.iv.next.i.i = add nuw nsw i64 %indvars.iv.i.i, 1
  %exitcond.not.i.i = icmp eq i64 %indvars.iv.next.i.i, %wide.trip.count.i.i
  br i1 %exitcond.not.i.i, label %._crit_edge.i.i, label %.lr.ph.i.i, !llvm.loop !13

._crit_edge.i.i:                                  ; preds = %.lr.ph.i.i
  %9 = zext i32 %spec.select.i.i to i64
  %10 = shl nuw nsw i64 %9, 2
  %11 = tail call noalias ptr @wmem_alloc(ptr noundef null, i64 noundef %10) #8
  %12 = getelementptr i32, ptr %11, i64 %9
  %13 = icmp eq i32 %spec.select.i.i, 1
  br i1 %13, label %oid_encoded2subid.exit.thread17, label %.lr.ph89.i.i

oid_encoded2subid.exit.thread17:                  ; preds = %._crit_edge.i.i, %._crit_edge.i.i.thread
  %14 = phi ptr [ %5, %._crit_edge.i.i.thread ], [ %11, %._crit_edge.i.i ]
  store i32 0, ptr %14, align 4
  br label %36

.lr.ph89.i.i:                                     ; preds = %._crit_edge.i.i, %35
  %indvars.iv91.i.i = phi i64 [ %indvars.iv.next92.i.i, %35 ], [ 0, %._crit_edge.i.i ]
  %.05588.i.i = phi i64 [ %.156.ph.i.i, %35 ], [ 0, %._crit_edge.i.i ]
  %.05887.i.i = phi i1 [ %.159.ph.i.i, %35 ], [ true, %._crit_edge.i.i ]
  %.06186.i.i = phi ptr [ %.162.ph.i.i, %35 ], [ %11, %._crit_edge.i.i ]
  %15 = getelementptr i8, ptr %1, i64 %indvars.iv91.i.i
  %16 = load i8, ptr %15, align 1
  %17 = shl i64 %.05588.i.i, 7
  %18 = and i8 %16, 127
  %19 = zext nneg i8 %18 to i64
  %20 = or disjoint i64 %17, %19
  %.not.i.i = icmp sgt i8 %16, -1
  br i1 %.not.i.i, label %21, label %35

21:                                               ; preds = %.lr.ph89.i.i
  br i1 %.05887.i.i, label %22, label %29

22:                                               ; preds = %21
  %23 = icmp ugt i64 %20, 39
  %24 = add i64 %20, -40
  %spec.select73.i.i = select i1 %23, i64 %24, i64 %20
  %spec.select74.i.i = zext i1 %23 to i32
  %25 = icmp ugt i64 %spec.select73.i.i, 39
  %26 = select i1 %23, i32 2, i32 1
  %27 = add i64 %spec.select73.i.i, -40
  %.4.i.i = select i1 %25, i64 %27, i64 %spec.select73.i.i
  %.1.i.i = select i1 %25, i32 %26, i32 %spec.select74.i.i
  %28 = getelementptr i8, ptr %.06186.i.i, i64 4
  store i32 %.1.i.i, ptr %.06186.i.i, align 4
  br label %29

29:                                               ; preds = %22, %21
  %.263.i.i = phi ptr [ %28, %22 ], [ %.06186.i.i, %21 ]
  %.257.i.i = phi i64 [ %.4.i.i, %22 ], [ %20, %21 ]
  %30 = icmp uge ptr %.263.i.i, %12
  %31 = icmp ugt i64 %.257.i.i, 4294967295
  %or.cond5.i.i = select i1 %30, i1 true, i1 %31
  br i1 %or.cond5.i.i, label %oid_encoded2subid.exit.thread, label %32

32:                                               ; preds = %29
  %33 = trunc nuw i64 %.257.i.i to i32
  %34 = getelementptr i8, ptr %.263.i.i, i64 4
  store i32 %33, ptr %.263.i.i, align 4
  br label %35

oid_encoded2subid.exit.thread:                    ; preds = %29
  tail call void @wmem_free(ptr noundef null, ptr noundef %11)
  br label %50

35:                                               ; preds = %32, %.lr.ph89.i.i
  %.162.ph.i.i = phi ptr [ %.06186.i.i, %.lr.ph89.i.i ], [ %34, %32 ]
  %.159.ph.i.i = phi i1 [ %.05887.i.i, %.lr.ph89.i.i ], [ false, %32 ]
  %.156.ph.i.i = phi i64 [ %20, %.lr.ph89.i.i ], [ 0, %32 ]
  %indvars.iv.next92.i.i = add nuw nsw i64 %indvars.iv91.i.i, 1
  %exitcond94.not.i.i = icmp eq i64 %indvars.iv.next92.i.i, %wide.trip.count.i.i
  br i1 %exitcond94.not.i.i, label %oid_encoded2subid.exit, label %.lr.ph89.i.i, !llvm.loop !14

oid_encoded2subid.exit:                           ; preds = %35
  %.not = icmp eq i32 %spec.select.i.i, 0
  br i1 %.not, label %50, label %36

36:                                               ; preds = %oid_encoded2subid.exit.thread17, %oid_encoded2subid.exit
  %.052.i.i22 = phi i32 [ 1, %oid_encoded2subid.exit.thread17 ], [ %spec.select.i.i, %oid_encoded2subid.exit ]
  %.01021 = phi ptr [ %14, %oid_encoded2subid.exit.thread17 ], [ %11, %oid_encoded2subid.exit ]
  %37 = icmp eq ptr %.01021, null
  br i1 %37, label %38, label %40

38:                                               ; preds = %36
  %39 = tail call noalias ptr @wmem_strdup(ptr noundef %0, ptr noundef nonnull @.str.16)
  br label %oid_subid2string.exit

40:                                               ; preds = %36
  %41 = tail call noalias ptr @wmem_strbuf_new(ptr noundef %0, ptr noundef nonnull @.str.17)
  br label %42

42:                                               ; preds = %42, %40
  %.015.i.i = phi i32 [ %.052.i.i22, %40 ], [ %45, %42 ]
  %.014.i.i = phi ptr [ %.01021, %40 ], [ %43, %42 ]
  %43 = getelementptr i8, ptr %.014.i.i, i64 4
  %44 = load i32, ptr %.014.i.i, align 4
  tail call void (ptr, ptr, ...) @wmem_strbuf_append_printf(ptr noundef %41, ptr noundef nonnull @.str.18, i32 noundef %44)
  %45 = add i32 %.015.i.i, -1
  %.not.i.i7 = icmp eq i32 %45, 0
  br i1 %.not.i.i7, label %46, label %42, !llvm.loop !6

46:                                               ; preds = %42
  %47 = tail call i64 @wmem_strbuf_get_len(ptr noundef %41)
  %48 = add i64 %47, -1
  tail call void @wmem_strbuf_truncate(ptr noundef %41, i64 noundef %48)
  %49 = tail call ptr @wmem_strbuf_finalize(ptr noundef %41)
  br label %oid_subid2string.exit

50:                                               ; preds = %oid_encoded2subid.exit.thread, %oid_encoded2subid.exit
  %.01016 = phi ptr [ null, %oid_encoded2subid.exit.thread ], [ %11, %oid_encoded2subid.exit ]
  %51 = tail call noalias ptr @wmem_strdup(ptr noundef %0, ptr noundef nonnull @.str.17)
  br label %oid_subid2string.exit

oid_subid2string.exit:                            ; preds = %46, %38, %50
  %.01015 = phi ptr [ %.01016, %50 ], [ null, %38 ], [ %.01021, %46 ]
  %.0 = phi ptr [ %51, %50 ], [ %39, %38 ], [ %49, %46 ]
  tail call void @wmem_free(ptr noundef null, ptr noundef %.01015)
  ret ptr %.0
}